target datalayout = "e-m:e-p270:32:32-p271:32:32-p272:64:64-i64:64-i128:128-f80:128-n8:16:32:64-S128"
target triple = "x86_64-pc-linux-gnu"

%struct.stepmgr_job_info_t = type { i32, ptr }

; Function Attrs: nounwind uwtable
define dso_local void @slurm_pack_stepmgr_job_info(ptr noundef %0, i16 noundef zeroext %1, ptr noundef %2) #0 {
  %4 = alloca ptr, align 8
  %5 = alloca i16, align 2
  %6 = alloca ptr, align 8
  %7 = alloca ptr, align 8
  %8 = alloca i32, align 4
  store ptr %0, ptr %4, align 8
  store i16 %1, ptr %5, align 2
  store ptr %2, ptr %6, align 8
  call void @llvm.lifetime.start.p0(i64 8, ptr %7) #6
  %9 = load ptr, ptr %4, align 8
  store ptr %9, ptr %7, align 8
  %10 = load i16, ptr %5, align 2
  %11 = zext i16 %10 to i32
  %12 = icmp sge i32 %11, 10496
  br i1 %12, label %13, label %38

13:                                               ; preds = %3
  %14 = load ptr, ptr %7, align 8
  %15 = getelementptr inbounds nuw %struct.stepmgr_job_info_t, ptr %14, i32 0, i32 0
  %16 = load i32, ptr %15, align 8
  %17 = load ptr, ptr %6, align 8
  call void @pack32(i32 noundef %16, ptr noundef %17)
  br label %18

18:                                               ; preds = %13
  call void @llvm.lifetime.start.p0(i64 4, ptr %8) #6
  store i32 0, ptr %8, align 4
  %19 = load ptr, ptr %7, align 8
  %20 = getelementptr inbounds nuw %struct.stepmgr_job_info_t, ptr %19, i32 0, i32 1
  %21 = load ptr, ptr %20, align 8
  %22 = icmp ne ptr %21, null
  br i1 %22, label %23, label %30

23:                                               ; preds = %18
  %24 = load ptr, ptr %7, align 8
  %25 = getelementptr inbounds nuw %struct.stepmgr_job_info_t, ptr %24, i32 0, i32 1
  %26 = load ptr, ptr %25, align 8
  %27 = call i64 @strlen(ptr noundef %26) #7
  %28 = trunc i64 %27 to i32
  %29 = add i32 %28, 1
  store i32 %29, ptr %8, align 4
  br label %30

30:                                               ; preds = %23, %18
  %31 = load ptr, ptr %7, align 8
  %32 = getelementptr inbounds nuw %struct.stepmgr_job_info_t, ptr %31, i32 0, i32 1
  %33 = load ptr, ptr %32, align 8
  %34 = load i32, ptr %8, align 4
  %35 = load ptr, ptr %6, align 8
  call void @packmem(ptr noundef %33, i32 noundef %34, ptr noundef %35)
  call void @llvm.lifetime.end.p0(i64 4, ptr %8) #6
  br label %36

36:                                               ; preds = %30
  br label %37

37:                                               ; preds = %36
  br label %38

38:                                               ; preds = %37, %3
  call void @llvm.lifetime.end.p0(i64 8, ptr %7) #6
  ret void
}