; Function Attrs: nounwind uwtable
define dso_local void @slurm_pack_stepmgr_job_info(ptr noundef readonly captures(none) %0, i16 noundef zeroext %1, ptr noundef %2) local_unnamed_addr #0 {
  %4 = icmp ugt i16 %1, 10495
  br i1 %4, label %5, label %14

5:                                                ; preds = %3
  %6 = load i32, ptr %0, align 8
  tail call void @pack32(i32 noundef %6, ptr noundef %2) #7
  %7 = getelementptr inbounds nuw i8, ptr %0, i64 8
  %8 = load ptr, ptr %7, align 8
  %.not = icmp eq ptr %8, null
  br i1 %.not, label %13, label %9

9:                                                ; preds = %5
  %10 = tail call i64 @strlen(ptr noundef nonnull dereferenceable(1) %8) #8
  %11 = trunc i64 %10 to i32
  %12 = add i32 %11, 1
  br label %13

13:                                               ; preds = %9, %5
  %.0 = phi i32 [ %12, %9 ], [ 0, %5 ]
  tail call void @packmem(ptr noundef %8, i32 noundef %.0, ptr noundef %2) #7
  br label %14

14:                                               ; preds = %13, %3
  ret void
}